; Function Attrs: mustprogress uwtable
define dso_local void @_ZN9SResource16preflightStringsEP7SRBRootP10UHashtableR10UErrorCode(ptr noundef nonnull align 8 dereferenceable(56) %0, ptr noundef %1, ptr noundef %2, ptr noundef nonnull align 4 dereferenceable(4) %3) local_unnamed_addr #7 align 2 {
  %5 = load i32, ptr %3, align 4, !tbaa !22
  %6 = icmp slt i32 %5, 1
  %7 = getelementptr inbounds nuw i8, ptr %0, i64 12
  %8 = load i32, ptr %7, align 4
  %.not5 = icmp eq i32 %8, -1
  %or.cond = select i1 %6, i1 %.not5, i1 false
  br i1 %or.cond, label %9, label %13

9:                                                ; preds = %4
  %10 = load ptr, ptr %0, align 8, !tbaa !9
  %11 = getelementptr inbounds nuw i8, ptr %10, i64 16
  %12 = load ptr, ptr %11, align 8
  tail call void %12(ptr noundef nonnull align 8 dereferenceable(56) %0, ptr noundef %1, ptr noundef %2, ptr noundef nonnull align 4 dereferenceable(4) %3)
  br label %13

13:                                               ; preds = %4, %9
  ret void
}